; Function Attrs: mustprogress uwtable
define internal void @_ZN7rocksdb12_GLOBAL__N_111SkipListRep14InsertWithHintEPvPS2_(ptr noundef nonnull align 8 dereferenceable(88) %this, ptr noundef %handle, ptr nocapture noundef %hint) unnamed_addr #3 align 2 {
entry:
  %skip_list_ = getelementptr inbounds i8, ptr %this, i64 16
  %0 = load ptr, ptr %hint, align 8
  %cmp.i = icmp eq ptr %0, null
  br i1 %cmp.i, label %if.then.i, label %_ZN7rocksdb14InlineSkipListIRKNS_11MemTableRep13KeyComparatorEE14InsertWithHintEPKcPPv.exit

if.then.i:                                        ; preds = %entry
  %1 = load i16, ptr %skip_list_, align 8
  %conv.i.i = zext i16 %1 to i64
  %add.i.i = shl nuw nsw i64 %conv.i.i, 3
  %mul.i.i = add nuw nsw i64 %add.i.i, 8
  %allocator_.i.i = getelementptr inbounds i8, ptr %this, i64 24
  %2 = load ptr, ptr %allocator_.i.i, align 8
  %mul3.i.i = shl nuw nsw i64 %mul.i.i, 1
  %add4.i.i = add nuw nsw i64 %mul3.i.i, 24
  %vtable.i.i = load ptr, ptr %2, align 8
  %vfn.i.i = getelementptr inbounds i8, ptr %vtable.i.i, i64 24
  %3 = load ptr, ptr %vfn.i.i, align 8
  %call.i.i = tail call noundef ptr %3(ptr noundef nonnull align 8 dereferenceable(8) %2, i64 noundef %add4.i.i, i64 noundef 0, ptr noundef null)
  store i32 0, ptr %call.i.i, align 8
  %add.ptr.i.i = getelementptr inbounds i8, ptr %call.i.i, i64 24
  %prev_.i.i = getelementptr inbounds i8, ptr %call.i.i, i64 8
  store ptr %add.ptr.i.i, ptr %prev_.i.i, align 8
  %add.ptr6.i.i = getelementptr inbounds i8, ptr %add.ptr.i.i, i64 %mul.i.i
  %next_.i.i = getelementptr inbounds i8, ptr %call.i.i, i64 16
  store ptr %add.ptr6.i.i, ptr %next_.i.i, align 8
  store ptr %call.i.i, ptr %hint, align 8
  br label %_ZN7rocksdb14InlineSkipListIRKNS_11MemTableRep13KeyComparatorEE14InsertWithHintEPKcPPv.exit

_ZN7rocksdb14InlineSkipListIRKNS_11MemTableRep13KeyComparatorEE14InsertWithHintEPKcPPv.exit: ; preds = %entry, %if.then.i
  %splice.0.i = phi ptr [ %call.i.i, %if.then.i ], [ %0, %entry ]
  %call2.i = tail call noundef zeroext i1 @_ZN7rocksdb14InlineSkipListIRKNS_11MemTableRep13KeyComparatorEE6InsertILb0EEEbPKcPNS5_6SpliceEb(ptr noundef nonnull align 8 dereferenceable(48) %skip_list_, ptr noundef %handle, ptr noundef nonnull %splice.0.i, i1 noundef zeroext true)
  ret void
}